; Function Attrs: nounwind sspstrong uwtable
define dso_local void @add_boot_device_path(i32 noundef %bootindex, ptr noundef %dev, ptr noundef %suffix) local_unnamed_addr #1 {
entry:
  %cmp = icmp slt i32 %bootindex, 0
  br i1 %cmp, label %if.then, label %if.end

if.then:                                          ; preds = %entry
  %cmp.i = icmp eq ptr %dev, null
  br i1 %cmp.i, label %do.end33, label %for.cond.preheader.i

for.cond.preheader.i:                             ; preds = %if.then
  %i.018.i = load ptr, ptr @fw_boot_order, align 8
  %tobool.not19.i = icmp eq ptr %i.018.i, null
  br i1 %tobool.not19.i, label %do.end33, label %for.body.lr.ph.i

for.body.lr.ph.i:                                 ; preds = %for.cond.preheader.i
  %tobool1.not.i = icmp eq ptr %suffix, null
  br i1 %tobool1.not.i, label %for.body.us.i, label %for.body.i

for.body.us.i:                                    ; preds = %for.body.lr.ph.i, %for.inc.us.i
  %i.020.us.i = phi ptr [ %i.0.us.i, %for.inc.us.i ], [ %i.018.i, %for.body.lr.ph.i ]
  %dev4.us.i = getelementptr inbounds nuw i8, ptr %i.020.us.i, i64 24
  %0 = load ptr, ptr %dev4.us.i, align 8
  %cmp5.us.i = icmp eq ptr %0, %dev
  br i1 %cmp5.us.i, label %do.body.i, label %for.inc.us.i

for.inc.us.i:                                     ; preds = %for.body.us.i
  %i.0.us.i = load ptr, ptr %i.020.us.i, align 8
  %tobool.not.us.i = icmp eq ptr %i.0.us.i, null
  br i1 %tobool.not.us.i, label %do.end33, label %for.body.us.i, !llvm.loop !8

for.body.i:                                       ; preds = %for.body.lr.ph.i, %for.inc.i
  %i.020.i = phi ptr [ %i.0.i, %for.inc.i ], [ %i.018.i, %for.body.lr.ph.i ]
  %suffix2.i = getelementptr inbounds nuw i8, ptr %i.020.i, i64 32
  %1 = load ptr, ptr %suffix2.i, align 8
  %call.i = tail call i32 @g_strcmp0(ptr noundef %1, ptr noundef nonnull %suffix) #11
  %tobool3.not.i = icmp eq i32 %call.i, 0
  br i1 %tobool3.not.i, label %land.lhs.true.i, label %for.inc.i

land.lhs.true.i:                                  ; preds = %for.body.i
  %dev4.i = getelementptr inbounds nuw i8, ptr %i.020.i, i64 24
  %2 = load ptr, ptr %dev4.i, align 8
  %cmp5.i = icmp eq ptr %2, %dev
  br i1 %cmp5.i, label %do.body.i, label %for.inc.i

do.body.i:                                        ; preds = %land.lhs.true.i, %for.body.us.i
  %.us-phi.i = phi ptr [ %i.020.us.i, %for.body.us.i ], [ %i.020.i, %land.lhs.true.i ]
  %3 = load ptr, ptr %.us-phi.i, align 8
  %cmp7.not.i = icmp eq ptr %3, null
  %tql_prev14.i = getelementptr inbounds nuw i8, ptr %.us-phi.i, i64 8
  %4 = load ptr, ptr %tql_prev14.i, align 8
  br i1 %cmp7.not.i, label %if.else.i, label %if.then8.i

if.then8.i:                                       ; preds = %do.body.i
  %tql_prev12.i = getelementptr inbounds nuw i8, ptr %3, i64 8
  store ptr %4, ptr %tql_prev12.i, align 8
  br label %if.end15.i

if.else.i:                                        ; preds = %do.body.i
  store ptr %4, ptr getelementptr inbounds nuw (i8, ptr @fw_boot_order, i64 8), align 8
  br label %if.end15.i

if.end15.i:                                       ; preds = %if.else.i, %if.then8.i
  %5 = load ptr, ptr %.us-phi.i, align 8
  store ptr %5, ptr %4, align 8
  %suffix24.i = getelementptr inbounds nuw i8, ptr %.us-phi.i, i64 32
  tail call void @llvm.memset.p0.i64(ptr noundef nonnull align 8 dereferenceable(16) %.us-phi.i, i8 0, i64 16, i1 false)
  %6 = load ptr, ptr %suffix24.i, align 8
  tail call void @g_free(ptr noundef %6) #11
  tail call void @g_free(ptr noundef nonnull %.us-phi.i) #11
  br label %do.end33

for.inc.i:                                        ; preds = %land.lhs.true.i, %for.body.i
  %i.0.i = load ptr, ptr %i.020.i, align 8
  %tobool.not.i = icmp eq ptr %i.0.i, null
  br i1 %tobool.not.i, label %do.end33, label %for.body.i, !llvm.loop !8

if.end:                                           ; preds = %entry
  %cmp1 = icmp ne ptr %dev, null
  %cmp2 = icmp ne ptr %suffix, null
  %or.cond = or i1 %cmp1, %cmp2
  br i1 %or.cond, label %if.end4, label %if.else

if.else:                                          ; preds = %if.end
  tail call void @__assert_fail(ptr noundef nonnull @.str.5, ptr noundef nonnull @.str, i32 noundef 165, ptr noundef nonnull @__PRETTY_FUNCTION__.add_boot_device_path) #12
  unreachable

if.end4:                                          ; preds = %if.end
  %cmp.i28 = icmp eq ptr %dev, null
  br i1 %cmp.i28, label %del_boot_device_path.exit61, label %for.cond.preheader.i29

for.cond.preheader.i29:                           ; preds = %if.end4
  %i.018.i30 = load ptr, ptr @fw_boot_order, align 8
  %tobool.not19.i31 = icmp eq ptr %i.018.i30, null
  br i1 %tobool.not19.i31, label %del_boot_device_path.exit61, label %for.body.lr.ph.i32

for.body.lr.ph.i32:                               ; preds = %for.cond.preheader.i29
  %tobool1.not.i33 = icmp eq ptr %suffix, null
  br i1 %tobool1.not.i33, label %for.body.us.i54, label %for.body.i34

for.body.us.i54:                                  ; preds = %for.body.lr.ph.i32, %for.inc.us.i58
  %i.020.us.i55 = phi ptr [ %i.0.us.i59, %for.inc.us.i58 ], [ %i.018.i30, %for.body.lr.ph.i32 ]
  %dev4.us.i56 = getelementptr inbounds nuw i8, ptr %i.020.us.i55, i64 24
  %7 = load ptr, ptr %dev4.us.i56, align 8
  %cmp5.us.i57 = icmp eq ptr %7, %dev
  br i1 %cmp5.us.i57, label %do.body.i45, label %for.inc.us.i58

for.inc.us.i58:                                   ; preds = %for.body.us.i54
  %i.0.us.i59 = load ptr, ptr %i.020.us.i55, align 8
  %tobool.not.us.i60 = icmp eq ptr %i.0.us.i59, null
  br i1 %tobool.not.us.i60, label %del_boot_device_path.exit61, label %for.body.us.i54, !llvm.loop !8

for.body.i34:                                     ; preds = %for.body.lr.ph.i32, %for.inc.i39
  %i.020.i35 = phi ptr [ %i.0.i40, %for.inc.i39 ], [ %i.018.i30, %for.body.lr.ph.i32 ]
  %suffix2.i36 = getelementptr inbounds nuw i8, ptr %i.020.i35, i64 32
  %8 = load ptr, ptr %suffix2.i36, align 8
  %call.i37 = tail call i32 @g_strcmp0(ptr noundef %8, ptr noundef nonnull %suffix) #11
  %tobool3.not.i38 = icmp eq i32 %call.i37, 0
  br i1 %tobool3.not.i38, label %land.lhs.true.i42, label %for.inc.i39

land.lhs.true.i42:                                ; preds = %for.body.i34
  %dev4.i43 = getelementptr inbounds nuw i8, ptr %i.020.i35, i64 24
  %9 = load ptr, ptr %dev4.i43, align 8
  %cmp5.i44 = icmp eq ptr %9, %dev
  br i1 %cmp5.i44, label %do.body.i45, label %for.inc.i39

do.body.i45:                                      ; preds = %land.lhs.true.i42, %for.body.us.i54
  %.us-phi.i46 = phi ptr [ %i.020.us.i55, %for.body.us.i54 ], [ %i.020.i35, %land.lhs.true.i42 ]
  %10 = load ptr, ptr %.us-phi.i46, align 8
  %cmp7.not.i47 = icmp eq ptr %10, null
  %tql_prev14.i48 = getelementptr inbounds nuw i8, ptr %.us-phi.i46, i64 8
  %11 = load ptr, ptr %tql_prev14.i48, align 8
  br i1 %cmp7.not.i47, label %if.else.i53, label %if.then8.i49

if.then8.i49:                                     ; preds = %do.body.i45
  %tql_prev12.i50 = getelementptr inbounds nuw i8, ptr %10, i64 8
  store ptr %11, ptr %tql_prev12.i50, align 8
  br label %if.end15.i51

if.else.i53:                                      ; preds = %do.body.i45
  store ptr %11, ptr getelementptr inbounds nuw (i8, ptr @fw_boot_order, i64 8), align 8
  br label %if.end15.i51

if.end15.i51:                                     ; preds = %if.else.i53, %if.then8.i49
  %12 = load ptr, ptr %.us-phi.i46, align 8
  store ptr %12, ptr %11, align 8
  %suffix24.i52 = getelementptr inbounds nuw i8, ptr %.us-phi.i46, i64 32
  tail call void @llvm.memset.p0.i64(ptr noundef nonnull align 8 dereferenceable(16) %.us-phi.i46, i8 0, i64 16, i1 false)
  %13 = load ptr, ptr %suffix24.i52, align 8
  tail call void @g_free(ptr noundef %13) #11
  tail call void @g_free(ptr noundef nonnull %.us-phi.i46) #11
  br label %del_boot_device_path.exit61

for.inc.i39:                                      ; preds = %land.lhs.true.i42, %for.body.i34
  %i.0.i40 = load ptr, ptr %i.020.i35, align 8
  %tobool.not.i41 = icmp eq ptr %i.0.i40, null
  br i1 %tobool.not.i41, label %del_boot_device_path.exit61, label %for.body.i34, !llvm.loop !8

del_boot_device_path.exit61:                      ; preds = %for.inc.i39, %for.inc.us.i58, %if.end4, %for.cond.preheader.i29, %if.end15.i51
  %call = tail call noalias dereferenceable_or_null(40) ptr @g_malloc0_n(i64 noundef 1, i64 noundef 40) #13
  %bootindex5 = getelementptr inbounds nuw i8, ptr %call, i64 16
  store i32 %bootindex, ptr %bootindex5, align 8
  %call6 = tail call noalias ptr @g_strdup(ptr noundef %suffix) #11
  %suffix7 = getelementptr inbounds nuw i8, ptr %call, i64 32
  store ptr %call6, ptr %suffix7, align 8
  %dev8 = getelementptr inbounds nuw i8, ptr %call, i64 24
  store ptr %dev, ptr %dev8, align 8
  br label %for.cond

for.cond:                                         ; preds = %if.else12, %del_boot_device_path.exit61
  %i.0.in = phi ptr [ @fw_boot_order, %del_boot_device_path.exit61 ], [ %i.0, %if.else12 ]
  %i.0 = load ptr, ptr %i.0.in, align 8
  %tobool.not = icmp eq ptr %i.0, null
  br i1 %tobool.not, label %do.body27, label %for.body

for.body:                                         ; preds = %for.cond
  %bootindex9 = getelementptr inbounds nuw i8, ptr %i.0, i64 16
  %14 = load i32, ptr %bootindex9, align 8
  %cmp10 = icmp eq i32 %14, %bootindex
  br i1 %cmp10, label %if.then11, label %if.else12

if.then11:                                        ; preds = %for.body
  tail call void (ptr, ...) @error_report(ptr noundef nonnull @.str.6, i32 noundef %bootindex) #11
  tail call void @exit(i32 noundef 1) #14
  unreachable

if.else12:                                        ; preds = %for.body
  %cmp14 = icmp slt i32 %14, %bootindex
  br i1 %cmp14, label %for.cond, label %do.body, !llvm.loop !9

do.body:                                          ; preds = %if.else12
  %tql_prev = getelementptr inbounds nuw i8, ptr %i.0, i64 8
  %15 = load ptr, ptr %tql_prev, align 8
  %tql_prev19 = getelementptr inbounds nuw i8, ptr %call, i64 8
  store ptr %15, ptr %tql_prev19, align 8
  store ptr %i.0, ptr %call, align 8
  %16 = load ptr, ptr %tql_prev, align 8
  store ptr %call, ptr %16, align 8
  store ptr %call, ptr %tql_prev, align 8
  br label %do.end33

do.body27:                                        ; preds = %for.cond
  store ptr null, ptr %call, align 8
  %17 = load ptr, ptr getelementptr inbounds nuw (i8, ptr @fw_boot_order, i64 8), align 8
  %tql_prev30 = getelementptr inbounds nuw i8, ptr %call, i64 8
  store ptr %17, ptr %tql_prev30, align 8
  store ptr %call, ptr %17, align 8
  store ptr %call, ptr getelementptr inbounds nuw (i8, ptr @fw_boot_order, i64 8), align 8
  br label %do.end33

do.end33:                                         ; preds = %for.inc.i, %for.inc.us.i, %if.end15.i, %for.cond.preheader.i, %if.then, %do.body27, %do.body
  ret void
}